; ModuleID = '58/1017.c'
source_filename = "58/1017.c"
target datalayout = "e-m:e-p270:32:32-p271:32:32-p272:64:64-i64:64-f80:128-n8:16:32:64-S128"
target triple = "x86_64-pc-linux-gnu"

@.str = private unnamed_addr constant [3 x i8] c"%d\00", align 1
@.str.1 = private unnamed_addr constant [3 x i8] c"1\0A\00", align 1
@.str.2 = private unnamed_addr constant [3 x i8] c"0\0A\00", align 1
@.str.3 = private unnamed_addr constant [2 x i8] c"1\00", align 1
@.str.4 = private unnamed_addr constant [2 x i8] c"\0A\00", align 1
@.str.5 = private unnamed_addr constant [2 x i8] c"0\00", align 1

; Function Attrs: noinline nounwind uwtable
define dso_local i32 @main() #0 {
  %1 = alloca i32, align 4
  %2 = alloca i32, align 4
  %3 = alloca i32, align 4
  %4 = alloca i32, align 4
  %5 = alloca i32, align 4
  %6 = alloca i32, align 4
  %7 = alloca i32, align 4
  %8 = alloca [81 x i8], align 16
  store i32 0, i32* %1, align 4
  store i32 0, i32* %6, align 4
  store i32 0, i32* %7, align 4
  %9 = call i32 (i8*, ...) @__isoc99_scanf(i8* getelementptr inbounds ([3 x i8], [3 x i8]* @.str, i64 0, i64 0), i32* %2)
  %10 = call i32 @getchar()
  store i32 0, i32* %3, align 4
  br label %11

11:                                               ; preds = %169, %0
  %12 = load i32, i32* %3, align 4
  %13 = load i32, i32* %2, align 4
  %14 = icmp slt i32 %12, %13
  br i1 %14, label %15, label %172

15:                                               ; preds = %11
  %16 = getelementptr inbounds [81 x i8], [81 x i8]* %8, i64 0, i64 0
  %17 = call i32 (i8*, ...) bitcast (i32 (...)* @gets to i32 (i8*, ...)*)(i8* %16)
  %18 = getelementptr inbounds [81 x i8], [81 x i8]* %8, i64 0, i64 0
  %19 = call i64 @strlen(i8* %18) #3
  %20 = trunc i64 %19 to i32
  store i32 %20, i32* %5, align 4
  %21 = load i32, i32* %5, align 4
  %22 = icmp eq i32 %21, 1
  br i1 %22, label %23, label %59

23:                                               ; preds = %15
  store i32 0, i32* %7, align 4
  %24 = getelementptr inbounds [81 x i8], [81 x i8]* %8, i64 0, i64 0
  %25 = load i8, i8* %24, align 16
  %26 = sext i8 %25 to i32
  %27 = icmp sge i32 %26, 65
  br i1 %27, label %28, label %33

28:                                               ; preds = %23
  %29 = getelementptr inbounds [81 x i8], [81 x i8]* %8, i64 0, i64 0
  %30 = load i8, i8* %29, align 16
  %31 = sext i8 %30 to i32
  %32 = icmp sle i32 %31, 90
  br i1 %32, label %48, label %33

33:                                               ; preds = %28, %23
  %34 = getelementptr inbounds [81 x i8], [81 x i8]* %8, i64 0, i64 0
  %35 = load i8, i8* %34, align 16
  %36 = sext i8 %35 to i32
  %37 = icmp sge i32 %36, 97
  br i1 %37, label %38, label %43

38:                                               ; preds = %33
  %39 = getelementptr inbounds [81 x i8], [81 x i8]* %8, i64 0, i64 0
  %40 = load i8, i8* %39, align 16
  %41 = sext i8 %40 to i32
  %42 = icmp sle i32 %41, 122
  br i1 %42, label %48, label %43

43:                                               ; preds = %38, %33
  %44 = getelementptr inbounds [81 x i8], [81 x i8]* %8, i64 0, i64 0
  %45 = load i8, i8* %44, align 16
  %46 = sext i8 %45 to i32
  %47 = icmp eq i32 %46, 95
  br i1 %47, label %48, label %51

48:                                               ; preds = %43, %38, %28
  %49 = load i32, i32* %7, align 4
  %50 = add nsw i32 %49, 1
  store i32 %50, i32* %7, align 4
  br label %51

51:                                               ; preds = %48, %43
  %52 = load i32, i32* %7, align 4
  %53 = icmp eq i32 %52, 1
  br i1 %53, label %54, label %56

54:                                               ; preds = %51
  %55 = call i32 (i8*, ...) @printf(i8* getelementptr inbounds ([3 x i8], [3 x i8]* @.str.1, i64 0, i64 0))
  br label %58

56:                                               ; preds = %51
  %57 = call i32 (i8*, ...) @printf(i8* getelementptr inbounds ([3 x i8], [3 x i8]* @.str.2, i64 0, i64 0))
  br label %58

58:                                               ; preds = %56, %54
  br label %168

59:                                               ; preds = %15
  %60 = getelementptr inbounds [81 x i8], [81 x i8]* %8, i64 0, i64 0
  %61 = load i8, i8* %60, align 16
  %62 = sext i8 %61 to i32
  %63 = icmp sge i32 %62, 65
  br i1 %63, label %64, label %69

64:                                               ; preds = %59
  %65 = getelementptr inbounds [81 x i8], [81 x i8]* %8, i64 0, i64 0
  %66 = load i8, i8* %65, align 16
  %67 = sext i8 %66 to i32
  %68 = icmp sle i32 %67, 90
  br i1 %68, label %84, label %69

69:                                               ; preds = %64, %59
  %70 = getelementptr inbounds [81 x i8], [81 x i8]* %8, i64 0, i64 0
  %71 = load i8, i8* %70, align 16
  %72 = sext i8 %71 to i32
  %73 = icmp sge i32 %72, 97
  br i1 %73, label %74, label %79

74:                                               ; preds = %69
  %75 = getelementptr inbounds [81 x i8], [81 x i8]* %8, i64 0, i64 0
  %76 = load i8, i8* %75, align 16
  %77 = sext i8 %76 to i32
  %78 = icmp sle i32 %77, 122
  br i1 %78, label %84, label %79

79:                                               ; preds = %74, %69
  %80 = getelementptr inbounds [81 x i8], [81 x i8]* %8, i64 0, i64 0
  %81 = load i8, i8* %80, align 16
  %82 = sext i8 %81 to i32
  %83 = icmp eq i32 %82, 95
  br i1 %83, label %84, label %164

84:                                               ; preds = %79, %74, %64
  store i32 0, i32* %6, align 4
  store i32 1, i32* %4, align 4
  br label %85

85:                                               ; preds = %149, %84
  %86 = load i32, i32* %4, align 4
  %87 = load i32, i32* %5, align 4
  %88 = icmp slt i32 %86, %87
  br i1 %88, label %89, label %152

89:                                               ; preds = %85
  %90 = getelementptr inbounds [81 x i8], [81 x i8]* %8, i64 0, i64 0
  %91 = load i32, i32* %4, align 4
  %92 = sext i32 %91 to i64
  %93 = getelementptr inbounds i8, i8* %90, i64 %92
  %94 = load i8, i8* %93, align 1
  %95 = sext i8 %94 to i32
  %96 = icmp sge i32 %95, 65
  br i1 %96, label %97, label %105

97:                                               ; preds = %89
  %98 = getelementptr inbounds [81 x i8], [81 x i8]* %8, i64 0, i64 0
  %99 = load i32, i32* %4, align 4
  %100 = sext i32 %99 to i64
  %101 = getelementptr inbounds i8, i8* %98, i64 %100
  %102 = load i8, i8* %101, align 1
  %103 = sext i8 %102 to i32
  %104 = icmp sle i32 %103, 90
  br i1 %104, label %145, label %105

105:                                              ; preds = %97, %89
  %106 = getelementptr inbounds [81 x i8], [81 x i8]* %8, i64 0, i64 0
  %107 = load i32, i32* %4, align 4
  %108 = sext i32 %107 to i64
  %109 = getelementptr inbounds i8, i8* %106, i64 %108
  %110 = load i8, i8* %109, align 1
  %111 = sext i8 %110 to i32
  %112 = icmp sge i32 %111, 97
  br i1 %112, label %113, label %121

113:                                              ; preds = %105
  %114 = getelementptr inbounds [81 x i8], [81 x i8]* %8, i64 0, i64 0
  %115 = load i32, i32* %4, align 4
  %116 = sext i32 %115 to i64
  %117 = getelementptr inbounds i8, i8* %114, i64 %116
  %118 = load i8, i8* %117, align 1
  %119 = sext i8 %118 to i32
  %120 = icmp sle i32 %119, 122
  br i1 %120, label %145, label %121

121:                                              ; preds = %113, %105
  %122 = getelementptr inbounds [81 x i8], [81 x i8]* %8, i64 0, i64 0
  %123 = load i32, i32* %4, align 4
  %124 = sext i32 %123 to i64
  %125 = getelementptr inbounds i8, i8* %122, i64 %124
  %126 = load i8, i8* %125, align 1
  %127 = sext i8 %126 to i32
  %128 = icmp eq i32 %127, 95
  br i1 %128, label %145, label %129

129:                                              ; preds = %121
  %130 = getelementptr inbounds [81 x i8], [81 x i8]* %8, i64 0, i64 0
  %131 = load i32, i32* %4, align 4
  %132 = sext i32 %131 to i64
  %133 = getelementptr inbounds i8, i8* %130, i64 %132
  %134 = load i8, i8* %133, align 1
  %135 = sext i8 %134 to i32
  %136 = icmp sge i32 %135, 48
  br i1 %136, label %137, label %148

137:                                              ; preds = %129
  %138 = getelementptr inbounds [81 x i8], [81 x i8]* %8, i64 0, i64 0
  %139 = load i32, i32* %4, align 4
  %140 = sext i32 %139 to i64
  %141 = getelementptr inbounds i8, i8* %138, i64 %140
  %142 = load i8, i8* %141, align 1
  %143 = sext i8 %142 to i32
  %144 = icmp sle i32 %143, 57
  br i1 %144, label %145, label %148

145:                                              ; preds = %137, %121, %113, %97
  %146 = load i32, i32* %6, align 4
  %147 = add nsw i32 %146, 1
  store i32 %147, i32* %6, align 4
  br label %148

148:                                              ; preds = %145, %137, %129
  br label %149

149:                                              ; preds = %148
  %150 = load i32, i32* %4, align 4
  %151 = add nsw i32 %150, 1
  store i32 %151, i32* %4, align 4
  br label %85

152:                                              ; preds = %85
  %153 = load i32, i32* %6, align 4
  %154 = load i32, i32* %5, align 4
  %155 = sub nsw i32 %154, 1
  %156 = icmp eq i32 %153, %155
  br i1 %156, label %157, label %160

157:                                              ; preds = %152
  %158 = call i32 (i8*, ...) @printf(i8* getelementptr inbounds ([2 x i8], [2 x i8]* @.str.3, i64 0, i64 0))
  %159 = call i32 (i8*, ...) @printf(i8* getelementptr inbounds ([2 x i8], [2 x i8]* @.str.4, i64 0, i64 0))
  br label %163

160:                                              ; preds = %152
  %161 = call i32 (i8*, ...) @printf(i8* getelementptr inbounds ([2 x i8], [2 x i8]* @.str.5, i64 0, i64 0))
  %162 = call i32 (i8*, ...) @printf(i8* getelementptr inbounds ([2 x i8], [2 x i8]* @.str.4, i64 0, i64 0))
  br label %163

163:                                              ; preds = %160, %157
  br label %167

164:                                              ; preds = %79
  %165 = call i32 (i8*, ...) @printf(i8* getelementptr inbounds ([2 x i8], [2 x i8]* @.str.5, i64 0, i64 0))
  %166 = call i32 (i8*, ...) @printf(i8* getelementptr inbounds ([2 x i8], [2 x i8]* @.str.4, i64 0, i64 0))
  br label %167

167:                                              ; preds = %164, %163
  br label %168

168:                                              ; preds = %167, %58
  br label %169

169:                                              ; preds = %168
  %170 = load i32, i32* %3, align 4
  %171 = add nsw i32 %170, 1
  store i32 %171, i32* %3, align 4
  br label %11

172:                                              ; preds = %11
  ret i32 0
}

declare dso_local i32 @__isoc99_scanf(i8*, ...) #1

declare dso_local i32 @getchar() #1

declare dso_local i32 @gets(...) #1

; Function Attrs: nounwind readonly
declare dso_local i64 @strlen(i8*) #2

declare dso_local i32 @printf(i8*, ...) #1


!llvm.module.flags = !{!0}
!llvm.ident = !{!1}

!0 = !{i32 1, !"wchar_size", i32 4}
!1 = !{!"clang version 10.0.0-4ubuntu1 "}
